target datalayout = "e-m:e-p270:32:32-p271:32:32-p272:64:64-i64:64-i128:128-f80:128-n8:16:32:64-S128"
target triple = "x86_64-pc-linux-gnu"

%struct.dbd_roll_usage_msg_t = type { i16, i64, i64 }

; Function Attrs: nounwind uwtable
define internal void @_pack_roll_usage_msg(ptr noundef %0, i16 noundef zeroext %1, ptr noundef %2) #0 {
  %4 = alloca ptr, align 8
  %5 = alloca i16, align 2
  %6 = alloca ptr, align 8
  store ptr %0, ptr %4, align 8
  store i16 %1, ptr %5, align 2
  store ptr %2, ptr %6, align 8
  %7 = load i16, ptr %5, align 2
  %8 = zext i16 %7 to i32
  %9 = icmp sge i32 %8, 10240
  br i1 %9, label %10, label %23

10:                                               ; preds = %3
  %11 = load ptr, ptr %4, align 8
  %12 = getelementptr inbounds nuw %struct.dbd_roll_usage_msg_t, ptr %11, i32 0, i32 0
  %13 = load i16, ptr %12, align 8
  %14 = load ptr, ptr %6, align 8
  call void @pack16(i16 noundef zeroext %13, ptr noundef %14)
  %15 = load ptr, ptr %4, align 8
  %16 = getelementptr inbounds nuw %struct.dbd_roll_usage_msg_t, ptr %15, i32 0, i32 1
  %17 = load i64, ptr %16, align 8
  %18 = load ptr, ptr %6, align 8
  call void @pack_time(i64 noundef %17, ptr noundef %18)
  %19 = load ptr, ptr %4, align 8
  %20 = getelementptr inbounds nuw %struct.dbd_roll_usage_msg_t, ptr %19, i32 0, i32 2
  %21 = load i64, ptr %20, align 8
  %22 = load ptr, ptr %6, align 8
  call void @pack_time(i64 noundef %21, ptr noundef %22)
  br label %23

23:                                               ; preds = %10, %3
  ret void
}