; Function Attrs: nounwind uwtable
define internal fastcc void @_pack_roll_usage_msg(ptr noundef readonly captures(none) %0, i16 noundef zeroext %1, ptr noundef %2) unnamed_addr #0 {
  %4 = icmp ugt i16 %1, 10239
  br i1 %4, label %5, label %11

5:                                                ; preds = %3
  %6 = load i16, ptr %0, align 8
  tail call void @pack16(i16 noundef zeroext %6, ptr noundef %2) #5
  %7 = getelementptr inbounds nuw i8, ptr %0, i64 8
  %8 = load i64, ptr %7, align 8
  tail call void @pack_time(i64 noundef %8, ptr noundef %2) #5
  %9 = getelementptr inbounds nuw i8, ptr %0, i64 16
  %10 = load i64, ptr %9, align 8
  tail call void @pack_time(i64 noundef %10, ptr noundef %2) #5
  br label %11

11:                                               ; preds = %5, %3
  ret void
}